Certificate:
    Data:
        Version: 3 (0x2)
        Serial Number:
            bc:d7:22:43:4d:d5:29:8f:b9:2f:cd:d5:b7:9f:40:96
    Signature Algorithm: sha256WithRSAEncryption
        Issuer: CN=rasvpn
        Validity
            Not Before: Apr 14 10:19:03 2020 GMT
            Not After : Mar 30 10:19:03 2023 GMT
        Subject: CN=client
        Subject Public Key Info:
            Public Key Algorithm: rsaEncryption
                Public-Key: (2048 bit)
                Modulus:
                    00:df:c3:89:b2:e2:42:a8:ac:3f:b2:be:ee:e2:71:
                    54:73:7a:f0:b6:99:47:76:ef:d2:f1:1d:01:7a:61:
                    c7:75:21:61:f7:26:78:11:ee:7a:63:85:1f:72:76:
                    45:94:fe:15:ad:e1:39:6e:14:03:f4:ff:13:a4:a9:
                    a7:72:18:28:a6:55:f0:19:f3:a2:bc:06:22:d5:07:
                    26:a2:0f:b3:00:e7:17:b5:10:34:c9:85:77:9a:57:
                    7a:27:11:6e:21:e2:2d:d5:dd:3f:f8:c6:2f:40:75:
                    9a:81:1d:2c:3f:0e:c4:a8:e2:71:42:77:3c:21:42:
                    af:fb:16:49:8e:ba:79:63:8d:19:63:4d:5d:c1:b0:
                    12:21:c3:97:1c:f9:94:30:7e:55:9d:e2:42:20:a9:
                    79:63:87:61:83:45:96:68:f6:17:87:10:63:8c:c6:
                    48:6e:2b:8c:96:c1:4c:e1:66:f3:b3:8d:31:fc:e2:
                    91:7b:30:af:4f:84:ff:cc:2b:0f:84:5f:30:87:92:
                    4a:c2:a4:34:b9:b7:17:66:35:a2:10:ba:50:d6:a2:
                    33:06:26:16:a1:d4:94:4a:00:85:18:19:38:ad:e6:
                    05:0b:eb:27:49:d9:1d:24:5b:6f:55:2b:3c:1e:24:
                    33:d1:a7:ba:4b:96:67:a8:7f:44:ee:3d:5b:50:9a:
                    89:47
                Exponent: 65537 (0x10001)
        X509v3 extensions:
            X509v3 Basic Constraints: 
                CA:FALSE
            X509v3 Subject Key Identifier: 
                60:69:CD:76:59:7D:F3:7C:3A:57:65:8E:60:32:A8:B1:07:59:05:A5
            X509v3 Authority Key Identifier: 
                keyid:C7:F3:C7:84:79:34:AD:0A:8B:6B:DD:8A:2A:4A:93:00:2C:10:C2:57
                DirName:/CN=rasvpn
                serial:92:31:68:8D:5E:A3:E8:7D

            X509v3 Extended Key Usage: 
                TLS Web Client Authentication
            X509v3 Key Usage: 
                Digital Signature
    Signature Algorithm: sha256WithRSAEncryption
         89:4e:4b:13:99:08:be:e8:f8:b9:ab:f1:a3:95:06:aa:72:a9:
         14:3c:bd:c7:07:6a:2f:3e:b6:b7:8f:71:f9:3f:3b:07:2f:26:
         e6:39:82:09:db:c8:70:7f:11:c3:48:04:55:b9:de:e4:82:29:
         6f:ac:ff:01:a8:e0:b9:24:6e:68:5d:c4:9d:da:1a:71:9c:29:
         4c:28:63:04:59:4d:2b:1b:70:7c:5d:35:ac:63:21:d1:7c:c2:
         11:c1:0b:27:67:42:4f:13:08:9f:db:b4:f8:7e:1e:eb:fe:a5:
         c1:26:c3:cd:69:27:15:d4:34:c0:f0:13:6e:28:ee:e6:f4:2c:
         f3:50:7b:61:44:2d:e5:10:6a:8a:3e:82:d8:bf:e5:c0:4f:69:
         a9:a6:57:f1:46:ac:51:c4:eb:81:50:2c:d7:b4:ca:0b:94:dd:
         88:4f:7b:34:a4:ff:0d:ab:01:f6:5f:18:a4:a6:6e:a0:be:e4:
         2c:2e:5e:43:a0:1d:13:d1:88:4a:8f:20:60:21:69:cf:74:e0:
         a1:0b:9b:a0:bb:00:63:57:8e:03:0a:65:00:1f:60:1d:20:ea:
         66:43:38:11:ff:13:a2:70:78:4a:e5:36:2a:62:67:85:7b:63:
         6c:a1:ef:04:e5:69:16:28:73:da:70:ee:70:cd:8b:b2:ac:8b:
         81:77:ba:ba
-----BEGIN CERTIFICATE-----
MIIDQDCCAiigAwIBAgIRALzXIkNN1SmPuS/N1befQJYwDQYJKoZIhvcNAQELBQAw
ETEPMA0GA1UEAwwGcmFzdnBuMB4XDTIwMDQxNDEwMTkwM1oXDTIzMDMzMDEwMTkw
M1owETEPMA0GA1UEAwwGY2xpZW50MIIBIjANBgkqhkiG9w0BAQEFAAOCAQ8AMIIB
CgKCAQEA38OJsuJCqKw/sr7u4nFUc3rwtplHdu/S8R0BemHHdSFh9yZ4Ee56Y4Uf
cnZFlP4VreE5bhQD9P8TpKmnchgoplXwGfOivAYi1Qcmog+zAOcXtRA0yYV3mld6
JxFuIeIt1d0/+MYvQHWagR0sPw7EqOJxQnc8IUKv+xZJjrp5Y40ZY01dwbASIcOX
HPmUMH5VneJCIKl5Y4dhg0WWaPYXhxBjjMZIbiuMlsFM4Wbzs40x/OKRezCvT4T/
zCsPhF8wh5JKwqQ0ubcXZjWiELpQ1qIzBiYWodSUSgCFGBk4reYFC+snSdkdJFtv
VSs8HiQz0ae6S5ZnqH9E7j1bUJqJRwIDAQABo4GSMIGPMAkGA1UdEwQCMAAwHQYD
VR0OBBYEFGBpzXZZffN8OldljmAyqLEHWQWlMEEGA1UdIwQ6MDiAFMfzx4R5NK0K
i2vdiipKkwAsEMJXoRWkEzARMQ8wDQYDVQQDDAZyYXN2cG6CCQCSMWiNXqPofTAT
BgNVHSUEDDAKBggrBgEFBQcDAjALBgNVHQ8EBAMCB4AwDQYJKoZIhvcNAQELBQAD
ggEBAIlOSxOZCL7o+Lmr8aOVBqpyqRQ8vccHai8+trePcfk/OwcvJuY5ggnbyHB/
EcNIBFW53uSCKW+s/wGo4LkkbmhdxJ3aGnGcKUwoYwRZTSsbcHxdNaxjIdF8whHB
CydnQk8TCJ/btPh+Huv+pcEmw81pJxXUNMDwE24o7ub0LPNQe2FELeUQaoo+gti/
5cBPaammV/FGrFHE64FQLNe0yguU3YhPezSk/w2rAfZfGKSmbqC+5CwuXkOgHRPR
iEqPIGAhac904KELm6C7AGNXjgMKZQAfYB0g6mZDOBH/E6JweErlNipiZ4V7Y2yh
7wTlaRYoc9pw7nDNi7Ksi4F3uro=
-----END CERTIFICATE-----
